target datalayout = "e-m:e-p270:32:32-p271:32:32-p272:64:64-i64:64-i128:128-f80:128-n8:16:32:64-S128"
target triple = "x86_64-pc-linux-gnu"

@.str.11 = private unnamed_addr constant [4 x i8] c"N/A\00", align 1
@.str.12 = private unnamed_addr constant [6 x i8] c"0.0 s\00", align 1
@.str.13 = private unnamed_addr constant [7 x i8] c"%.f ns\00", align 1
@.str.14 = private unnamed_addr constant [8 x i8] c"%.1f us\00", align 1
@.str.15 = private unnamed_addr constant [8 x i8] c"%.1f ms\00", align 1
@.str.16 = private unnamed_addr constant [7 x i8] c"%.2f s\00", align 1
@.str.17 = private unnamed_addr constant [12 x i8] c"%.f m %.f s\00", align 1
@.str.18 = private unnamed_addr constant [18 x i8] c"%.f h %.f m %.f s\00", align 1
@.str.19 = private unnamed_addr constant [24 x i8] c"%.f d %.f h %.f m %.f s\00", align 1

; Function Attrs: nounwind uwtable
define ptr @H5_timer_get_time_string(double noundef %0) #0 {
  %2 = alloca ptr, align 8
  %3 = alloca double, align 8
  %4 = alloca ptr, align 8
  %5 = alloca double, align 8
  %6 = alloca double, align 8
  %7 = alloca double, align 8
  %8 = alloca double, align 8
  %9 = alloca i32, align 4
  store double %0, ptr %3, align 8, !tbaa !10
  call void @llvm.lifetime.start.p0(i64 8, ptr %4) #8
  call void @llvm.lifetime.start.p0(i64 8, ptr %5) #8
  store double 0.000000e+00, ptr %5, align 8, !tbaa !10
  call void @llvm.lifetime.start.p0(i64 8, ptr %6) #8
  store double 0.000000e+00, ptr %6, align 8, !tbaa !10
  call void @llvm.lifetime.start.p0(i64 8, ptr %7) #8
  store double 0.000000e+00, ptr %7, align 8, !tbaa !10
  call void @llvm.lifetime.start.p0(i64 8, ptr %8) #8
  store double 0.000000e+00, ptr %8, align 8, !tbaa !10
  %10 = load double, ptr %3, align 8, !tbaa !10
  %11 = fcmp ogt double %10, 6.000000e+01
  br i1 %11, label %12, label %35

12:                                               ; preds = %1
  %13 = load double, ptr %3, align 8, !tbaa !10
  store double %13, ptr %8, align 8, !tbaa !10
  %14 = load double, ptr %8, align 8, !tbaa !10
  %15 = fdiv double %14, 8.640000e+04
  %16 = call double @llvm.floor.f64(double %15)
  store double %16, ptr %5, align 8, !tbaa !10
  %17 = load double, ptr %5, align 8, !tbaa !10
  %18 = load double, ptr %8, align 8, !tbaa !10
  %19 = fneg double %17
  %20 = call double @llvm.fmuladd.f64(double %19, double 8.640000e+04, double %18)
  store double %20, ptr %8, align 8, !tbaa !10
  %21 = load double, ptr %8, align 8, !tbaa !10
  %22 = fdiv double %21, 3.600000e+03
  %23 = call double @llvm.floor.f64(double %22)
  store double %23, ptr %6, align 8, !tbaa !10
  %24 = load double, ptr %6, align 8, !tbaa !10
  %25 = load double, ptr %8, align 8, !tbaa !10
  %26 = fneg double %24
  %27 = call double @llvm.fmuladd.f64(double %26, double 3.600000e+03, double %25)
  store double %27, ptr %8, align 8, !tbaa !10
  %28 = load double, ptr %8, align 8, !tbaa !10
  %29 = fdiv double %28, 6.000000e+01
  %30 = call double @llvm.floor.f64(double %29)
  store double %30, ptr %7, align 8, !tbaa !10
  %31 = load double, ptr %7, align 8, !tbaa !10
  %32 = load double, ptr %8, align 8, !tbaa !10
  %33 = fneg double %31
  %34 = call double @llvm.fmuladd.f64(double %33, double 6.000000e+01, double %32)
  store double %34, ptr %8, align 8, !tbaa !10
  br label %35

35:                                               ; preds = %12, %1
  %36 = call noalias ptr @calloc(i64 noundef 1536, i64 noundef 1) #10
  store ptr %36, ptr %4, align 8, !tbaa !3
  %37 = icmp eq ptr null, %36
  br i1 %37, label %38, label %39

38:                                               ; preds = %35
  store ptr null, ptr %2, align 8
  store i32 1, ptr %9, align 4
  br label %117

39:                                               ; preds = %35
  %40 = load double, ptr %3, align 8, !tbaa !10
  %41 = fcmp olt double %40, 0.000000e+00
  br i1 %41, label %42, label %45

42:                                               ; preds = %39
  %43 = load ptr, ptr %4, align 8, !tbaa !3
  %44 = call i32 (ptr, i64, ptr, ...) @snprintf(ptr noundef %43, i64 noundef 1536, ptr noundef @.str.11) #8
  br label %115

45:                                               ; preds = %39
  %46 = load double, ptr %3, align 8, !tbaa !10
  %47 = fsub double 0.000000e+00, %46
  %48 = call double @llvm.fabs.f64(double %47)
  %49 = fcmp olt double %48, 0x3CB0000000000000
  br i1 %49, label %50, label %53

50:                                               ; preds = %45
  %51 = load ptr, ptr %4, align 8, !tbaa !3
  %52 = call i32 (ptr, i64, ptr, ...) @snprintf(ptr noundef %51, i64 noundef 1536, ptr noundef @.str.12) #8
  br label %114

53:                                               ; preds = %45
  %54 = load double, ptr %3, align 8, !tbaa !10
  %55 = fcmp olt double %54, 0x3EB0C6F7A0B5ED8D
  br i1 %55, label %56, label %61

56:                                               ; preds = %53
  %57 = load ptr, ptr %4, align 8, !tbaa !3
  %58 = load double, ptr %3, align 8, !tbaa !10
  %59 = fmul double %58, 1.000000e+09
  %60 = call i32 (ptr, i64, ptr, ...) @snprintf(ptr noundef %57, i64 noundef 1536, ptr noundef @.str.13, double noundef %59) #8
  br label %113

61:                                               ; preds = %53
  %62 = load double, ptr %3, align 8, !tbaa !10
  %63 = fcmp olt double %62, 1.000000e-03
  br i1 %63, label %64, label %69

64:                                               ; preds = %61
  %65 = load ptr, ptr %4, align 8, !tbaa !3
  %66 = load double, ptr %3, align 8, !tbaa !10
  %67 = fmul double %66, 1.000000e+06
  %68 = call i32 (ptr, i64, ptr, ...) @snprintf(ptr noundef %65, i64 noundef 1536, ptr noundef @.str.14, double noundef %67) #8
  br label %112

69:                                               ; preds = %61
  %70 = load double, ptr %3, align 8, !tbaa !10
  %71 = fcmp olt double %70, 1.000000e+00
  br i1 %71, label %72, label %77

72:                                               ; preds = %69
  %73 = load ptr, ptr %4, align 8, !tbaa !3
  %74 = load double, ptr %3, align 8, !tbaa !10
  %75 = fmul double %74, 1.000000e+03
  %76 = call i32 (ptr, i64, ptr, ...) @snprintf(ptr noundef %73, i64 noundef 1536, ptr noundef @.str.15, double noundef %75) #8
  br label %111

77:                                               ; preds = %69
  %78 = load double, ptr %3, align 8, !tbaa !10
  %79 = fcmp olt double %78, 6.000000e+01
  br i1 %79, label %80, label %84

80:                                               ; preds = %77
  %81 = load ptr, ptr %4, align 8, !tbaa !3
  %82 = load double, ptr %3, align 8, !tbaa !10
  %83 = call i32 (ptr, i64, ptr, ...) @snprintf(ptr noundef %81, i64 noundef 1536, ptr noundef @.str.16, double noundef %82) #8
  br label %110

84:                                               ; preds = %77
  %85 = load double, ptr %3, align 8, !tbaa !10
  %86 = fcmp olt double %85, 3.600000e+03
  br i1 %86, label %87, label %92

87:                                               ; preds = %84
  %88 = load ptr, ptr %4, align 8, !tbaa !3
  %89 = load double, ptr %7, align 8, !tbaa !10
  %90 = load double, ptr %8, align 8, !tbaa !10
  %91 = call i32 (ptr, i64, ptr, ...) @snprintf(ptr noundef %88, i64 noundef 1536, ptr noundef @.str.17, double noundef %89, double noundef %90) #8
  br label %109

92:                                               ; preds = %84
  %93 = load double, ptr %3, align 8, !tbaa !10
  %94 = fcmp olt double %93, 8.640000e+04
  br i1 %94, label %95, label %101

95:                                               ; preds = %92
  %96 = load ptr, ptr %4, align 8, !tbaa !3
  %97 = load double, ptr %6, align 8, !tbaa !10
  %98 = load double, ptr %7, align 8, !tbaa !10
  %99 = load double, ptr %8, align 8, !tbaa !10
  %100 = call i32 (ptr, i64, ptr, ...) @snprintf(ptr noundef %96, i64 noundef 1536, ptr noundef @.str.18, double noundef %97, double noundef %98, double noundef %99) #8
  br label %108

101:                                              ; preds = %92
  %102 = load ptr, ptr %4, align 8, !tbaa !3
  %103 = load double, ptr %5, align 8, !tbaa !10
  %104 = load double, ptr %6, align 8, !tbaa !10
  %105 = load double, ptr %7, align 8, !tbaa !10
  %106 = load double, ptr %8, align 8, !tbaa !10
  %107 = call i32 (ptr, i64, ptr, ...) @snprintf(ptr noundef %102, i64 noundef 1536, ptr noundef @.str.19, double noundef %103, double noundef %104, double noundef %105, double noundef %106) #8
  br label %108

108:                                              ; preds = %101, %95
  br label %109

109:                                              ; preds = %108, %87
  br label %110

110:                                              ; preds = %109, %80
  br label %111

111:                                              ; preds = %110, %72
  br label %112

112:                                              ; preds = %111, %64
  br label %113

113:                                              ; preds = %112, %56
  br label %114

114:                                              ; preds = %113, %50
  br label %115

115:                                              ; preds = %114, %42
  %116 = load ptr, ptr %4, align 8, !tbaa !3
  store ptr %116, ptr %2, align 8
  store i32 1, ptr %9, align 4
  br label %117

117:                                              ; preds = %115, %38
  call void @llvm.lifetime.end.p0(i64 8, ptr %8) #8
  call void @llvm.lifetime.end.p0(i64 8, ptr %7) #8
  call void @llvm.lifetime.end.p0(i64 8, ptr %6) #8
  call void @llvm.lifetime.end.p0(i64 8, ptr %5) #8
  call void @llvm.lifetime.end.p0(i64 8, ptr %4) #8
  %118 = load ptr, ptr %2, align 8
  ret ptr %118
}