; Function Attrs: nofree nounwind uwtable
define noalias noundef ptr @H5_timer_get_time_string(double noundef %0) local_unnamed_addr #0 {
  %2 = fcmp ogt double %0, 6.000000e+01
  br i1 %2, label %3, label %16

3:                                                ; preds = %1
  %4 = fdiv double %0, 8.640000e+04
  %5 = tail call double @llvm.floor.f64(double %4)
  %6 = fneg double %5
  %7 = tail call double @llvm.fmuladd.f64(double %6, double 8.640000e+04, double %0)
  %8 = fdiv double %7, 3.600000e+03
  %9 = tail call double @llvm.floor.f64(double %8)
  %10 = fneg double %9
  %11 = tail call double @llvm.fmuladd.f64(double %10, double 3.600000e+03, double %7)
  %12 = fdiv double %11, 6.000000e+01
  %13 = tail call double @llvm.floor.f64(double %12)
  %14 = fneg double %13
  %15 = tail call double @llvm.fmuladd.f64(double %14, double 6.000000e+01, double %11)
  br label %16

16:                                               ; preds = %3, %1
  %.045 = phi double [ %5, %3 ], [ 0.000000e+00, %1 ]
  %.044 = phi double [ %9, %3 ], [ 0.000000e+00, %1 ]
  %.043 = phi double [ %13, %3 ], [ 0.000000e+00, %1 ]
  %.0 = phi double [ %15, %3 ], [ 0.000000e+00, %1 ]
  %17 = tail call noalias dereferenceable_or_null(1536) ptr @calloc(i64 noundef 1536, i64 noundef 1) #13
  %18 = icmp eq ptr %17, null
  br i1 %18, label %56, label %19

19:                                               ; preds = %16
  %20 = fcmp olt double %0, 0.000000e+00
  br i1 %20, label %21, label %22

21:                                               ; preds = %19
  store i32 4271950, ptr %17, align 1
  br label %56

22:                                               ; preds = %19
  %23 = fsub double 0.000000e+00, %0
  %24 = tail call double @llvm.fabs.f64(double %23)
  %25 = fcmp olt double %24, 0x3CB0000000000000
  br i1 %25, label %26, label %27

26:                                               ; preds = %22
  tail call void @llvm.memcpy.p0.p0.i64(ptr noundef nonnull align 1 dereferenceable(6) %17, ptr noundef nonnull align 1 dereferenceable(6) @.str.12, i64 6, i1 false)
  br label %56

27:                                               ; preds = %22
  %28 = fcmp olt double %0, 0x3EB0C6F7A0B5ED8D
  br i1 %28, label %29, label %32

29:                                               ; preds = %27
  %30 = fmul double %0, 1.000000e+09
  %31 = tail call i32 (ptr, i64, ptr, ...) @snprintf(ptr noundef nonnull dereferenceable(1) %17, i64 noundef 1536, ptr noundef nonnull @.str.13, double noundef %30) #11
  br label %56

32:                                               ; preds = %27
  %33 = fcmp olt double %0, 1.000000e-03
  br i1 %33, label %34, label %37

34:                                               ; preds = %32
  %35 = fmul double %0, 1.000000e+06
  %36 = tail call i32 (ptr, i64, ptr, ...) @snprintf(ptr noundef nonnull dereferenceable(1) %17, i64 noundef 1536, ptr noundef nonnull @.str.14, double noundef %35) #11
  br label %56

37:                                               ; preds = %32
  %38 = fcmp olt double %0, 1.000000e+00
  br i1 %38, label %39, label %42

39:                                               ; preds = %37
  %40 = fmul double %0, 1.000000e+03
  %41 = tail call i32 (ptr, i64, ptr, ...) @snprintf(ptr noundef nonnull dereferenceable(1) %17, i64 noundef 1536, ptr noundef nonnull @.str.15, double noundef %40) #11
  br label %56

42:                                               ; preds = %37
  %43 = fcmp olt double %0, 6.000000e+01
  br i1 %43, label %44, label %46

44:                                               ; preds = %42
  %45 = tail call i32 (ptr, i64, ptr, ...) @snprintf(ptr noundef nonnull dereferenceable(1) %17, i64 noundef 1536, ptr noundef nonnull @.str.16, double noundef %0) #11
  br label %56

46:                                               ; preds = %42
  %47 = fcmp olt double %0, 3.600000e+03
  br i1 %47, label %48, label %50

48:                                               ; preds = %46
  %49 = tail call i32 (ptr, i64, ptr, ...) @snprintf(ptr noundef nonnull dereferenceable(1) %17, i64 noundef 1536, ptr noundef nonnull @.str.17, double noundef %.043, double noundef %.0) #11
  br label %56

50:                                               ; preds = %46
  %51 = fcmp olt double %0, 8.640000e+04
  br i1 %51, label %52, label %54

52:                                               ; preds = %50
  %53 = tail call i32 (ptr, i64, ptr, ...) @snprintf(ptr noundef nonnull dereferenceable(1) %17, i64 noundef 1536, ptr noundef nonnull @.str.18, double noundef %.044, double noundef %.043, double noundef %.0) #11
  br label %56

54:                                               ; preds = %50
  %55 = tail call i32 (ptr, i64, ptr, ...) @snprintf(ptr noundef nonnull dereferenceable(1) %17, i64 noundef 1536, ptr noundef nonnull @.str.19, double noundef %.045, double noundef %.044, double noundef %.043, double noundef %.0) #11
  br label %56

56:                                               ; preds = %21, %29, %39, %48, %54, %52, %44, %34, %26, %16
  ret ptr %17
}